; Function Attrs: mustprogress nounwind uwtable
define internal void @_ZN12_GLOBAL__N_19PHashImplD0Ev(ptr noundef nonnull align 8 dereferenceable(584) %0) unnamed_addr #6 align 2 {
  %2 = getelementptr inbounds i8, ptr %0, i64 488
  tail call void @_ZN2cv3MatD1Ev(ptr noundef nonnull align 8 dereferenceable(96) %2) #16
  %3 = getelementptr inbounds i8, ptr %0, i64 392
  tail call void @_ZN2cv3MatD1Ev(ptr noundef nonnull align 8 dereferenceable(96) %3) #16
  %4 = getelementptr inbounds i8, ptr %0, i64 296
  tail call void @_ZN2cv3MatD1Ev(ptr noundef nonnull align 8 dereferenceable(96) %4) #16
  %5 = getelementptr inbounds i8, ptr %0, i64 200
  tail call void @_ZN2cv3MatD1Ev(ptr noundef nonnull align 8 dereferenceable(96) %5) #16
  %6 = getelementptr inbounds i8, ptr %0, i64 104
  tail call void @_ZN2cv3MatD1Ev(ptr noundef nonnull align 8 dereferenceable(96) %6) #16
  %7 = getelementptr inbounds i8, ptr %0, i64 8
  tail call void @_ZN2cv3MatD1Ev(ptr noundef nonnull align 8 dereferenceable(96) %7) #16
  tail call void @_ZdlPv(ptr noundef nonnull %0) #19
  ret void
}